target datalayout = "e-m:e-p270:32:32-p271:32:32-p272:64:64-i64:64-i128:128-f80:128-n8:16:32:64-S128"
target triple = "x86_64-pc-linux-gnu"

$_ZTISt11logic_error = comdat any

$_ZTSSt11logic_error = comdat any

$_ZTISt9exception = comdat any

$_ZTSSt9exception = comdat any

@_ZTISt11logic_error = linkonce_odr constant { ptr, ptr, ptr } { ptr getelementptr inbounds (ptr, ptr @_ZTVN10__cxxabiv120__si_class_type_infoE, i64 2), ptr @_ZTSSt11logic_error, ptr @_ZTISt9exception }, comdat, align 8
@_ZTVN10__cxxabiv120__si_class_type_infoE = external global [0 x ptr]
@_ZTSSt11logic_error = linkonce_odr constant [16 x i8] c"St11logic_error\00", comdat, align 1
@_ZTISt9exception = linkonce_odr constant { ptr, ptr } { ptr getelementptr inbounds (ptr, ptr @_ZTVN10__cxxabiv117__class_type_infoE, i64 2), ptr @_ZTSSt9exception }, comdat, align 8
@_ZTVN10__cxxabiv117__class_type_infoE = external global [0 x ptr]
@_ZTSSt9exception = linkonce_odr constant [13 x i8] c"St9exception\00", comdat, align 1
@.str = private unnamed_addr constant [4 x i8] c"%s\0A\00", align 1

; Function Attrs: mustprogress noreturn uwtable
define hidden void @_ZN8facebook4yoga16fatalWithMessageEPKc(ptr noundef %0) #0 personality ptr @__gxx_personality_v0 {
  %2 = alloca ptr, align 8
  %3 = alloca ptr, align 8
  %4 = alloca i32, align 4
  store ptr %0, ptr %2, align 8, !tbaa !4
  %5 = call ptr @__cxa_allocate_exception(i64 16) #4
  %6 = load ptr, ptr %2, align 8, !tbaa !4
  invoke void @_ZNSt11logic_errorC1EPKc(ptr noundef nonnull align 8 dereferenceable(16) %5, ptr noundef %6)
          to label %7 unwind label %8

7:                                                ; preds = %1
  call void @__cxa_throw(ptr %5, ptr @_ZTISt11logic_error, ptr @_ZNSt11logic_errorD1Ev) #5
  unreachable

8:                                                ; preds = %1
  %9 = landingpad { ptr, i32 }
          cleanup
  %10 = extractvalue { ptr, i32 } %9, 0
  store ptr %10, ptr %3, align 8
  %11 = extractvalue { ptr, i32 } %9, 1
  store i32 %11, ptr %4, align 4
  call void @__cxa_free_exception(ptr %5) #4
  br label %12

12:                                               ; preds = %8
  %13 = load ptr, ptr %3, align 8
  %14 = load i32, ptr %4, align 4
  %15 = insertvalue { ptr, i32 } poison, ptr %13, 0
  %16 = insertvalue { ptr, i32 } %15, i32 %14, 1
  resume { ptr, i32 } %16
}

declare ptr @__cxa_allocate_exception(i64)

declare void @_ZNSt11logic_errorC1EPKc(ptr noundef nonnull align 8 dereferenceable(16), ptr noundef) unnamed_addr #1

declare i32 @__gxx_personality_v0(...)

declare void @__cxa_free_exception(ptr)

; Function Attrs: nounwind
declare void @_ZNSt11logic_errorD1Ev(ptr noundef nonnull align 8 dereferenceable(16)) unnamed_addr #2

declare void @__cxa_throw(ptr, ptr, ptr)

; Function Attrs: mustprogress uwtable
define hidden void @_ZN8facebook4yoga11assertFatalEbPKc(i1 noundef zeroext %0, ptr noundef %1) #3 {
  %3 = alloca i8, align 1
  %4 = alloca ptr, align 8
  %5 = zext i1 %0 to i8
  store i8 %5, ptr %3, align 1, !tbaa !9
  store ptr %1, ptr %4, align 8, !tbaa !4
  %6 = load i8, ptr %3, align 1, !tbaa !9, !range !11, !noundef !12
  %7 = trunc i8 %6 to i1
  br i1 %7, label %11, label %8

8:                                                ; preds = %2
  %9 = load ptr, ptr %4, align 8, !tbaa !4
  call void (i8, ptr, ...) @_ZN8facebook4yoga3logENS0_8LogLevelEPKcz(i8 noundef zeroext 5, ptr noundef @.str, ptr noundef %9) #4
  %10 = load ptr, ptr %4, align 8, !tbaa !4
  call void @_ZN8facebook4yoga16fatalWithMessageEPKc(ptr noundef %10) #5
  unreachable

11:                                               ; preds = %2
  ret void
}

; Function Attrs: nounwind
declare void @_ZN8facebook4yoga3logENS0_8LogLevelEPKcz(i8 noundef zeroext, ptr noundef, ...) #2

; Function Attrs: mustprogress uwtable
define hidden void @_ZN8facebook4yoga19assertFatalWithNodeEPKNS0_4NodeEbPKc(ptr noundef %0, i1 noundef zeroext %1, ptr noundef %2) #3 {
  %4 = alloca ptr, align 8
  %5 = alloca i8, align 1
  %6 = alloca ptr, align 8
  store ptr %0, ptr %4, align 8, !tbaa !13
  %7 = zext i1 %1 to i8
  store i8 %7, ptr %5, align 1, !tbaa !9
  store ptr %2, ptr %6, align 8, !tbaa !4
  %8 = load i8, ptr %5, align 1, !tbaa !9, !range !11, !noundef !12
  %9 = trunc i8 %8 to i1
  br i1 %9, label %14, label %10

10:                                               ; preds = %3
  %11 = load ptr, ptr %4, align 8, !tbaa !13
  %12 = load ptr, ptr %6, align 8, !tbaa !4
  call void (ptr, i8, ptr, ...) @_ZN8facebook4yoga3logEPKNS0_4NodeENS0_8LogLevelEPKcz(ptr noundef %11, i8 noundef zeroext 5, ptr noundef @.str, ptr noundef %12) #4
  %13 = load ptr, ptr %6, align 8, !tbaa !4
  call void @_ZN8facebook4yoga16fatalWithMessageEPKc(ptr noundef %13) #5
  unreachable

14:                                               ; preds = %3
  ret void
}

; Function Attrs: nounwind
declare void @_ZN8facebook4yoga3logEPKNS0_4NodeENS0_8LogLevelEPKcz(ptr noundef, i8 noundef zeroext, ptr noundef, ...) #2

; Function Attrs: mustprogress uwtable
define hidden void @_ZN8facebook4yoga21assertFatalWithConfigEPKNS0_6ConfigEbPKc(ptr noundef %0, i1 noundef zeroext %1, ptr noundef %2) #3 {
  %4 = alloca ptr, align 8
  %5 = alloca i8, align 1
  %6 = alloca ptr, align 8
  store ptr %0, ptr %4, align 8, !tbaa !15
  %7 = zext i1 %1 to i8
  store i8 %7, ptr %5, align 1, !tbaa !9
  store ptr %2, ptr %6, align 8, !tbaa !4
  %8 = load i8, ptr %5, align 1, !tbaa !9, !range !11, !noundef !12
  %9 = trunc i8 %8 to i1
  br i1 %9, label %14, label %10

10:                                               ; preds = %3
  %11 = load ptr, ptr %4, align 8, !tbaa !15
  %12 = load ptr, ptr %6, align 8, !tbaa !4
  call void (ptr, i8, ptr, ...) @_ZN8facebook4yoga3logEPKNS0_6ConfigENS0_8LogLevelEPKcz(ptr noundef %11, i8 noundef zeroext 5, ptr noundef @.str, ptr noundef %12) #4
  %13 = load ptr, ptr %6, align 8, !tbaa !4
  call void @_ZN8facebook4yoga16fatalWithMessageEPKc(ptr noundef %13) #5
  unreachable

14:                                               ; preds = %3
  ret void
}

; Function Attrs: nounwind
declare void @_ZN8facebook4yoga3logEPKNS0_6ConfigENS0_8LogLevelEPKcz(ptr noundef, i8 noundef zeroext, ptr noundef, ...) #2


!llvm.linker.options = !{}
!llvm.module.flags = !{!0, !1, !2, !3}

!0 = !{i32 1, !"wchar_size", i32 4}
!1 = !{i32 8, !"PIC Level", i32 2}
!2 = !{i32 7, !"uwtable", i32 2}
!3 = !{i32 7, !"frame-pointer", i32 2}
!4 = !{!5, !5, i64 0}
!5 = !{!"p1 omnipotent char", !6, i64 0}
!6 = !{!"any pointer", !7, i64 0}
!7 = !{!"omnipotent char", !8, i64 0}
!8 = !{!"Simple C++ TBAA"}
!9 = !{!10, !10, i64 0}
!10 = !{!"bool", !7, i64 0}
!11 = !{i8 0, i8 2}
!12 = !{}
!13 = !{!14, !14, i64 0}
!14 = !{!"p1 _ZTSN8facebook4yoga4NodeE", !6, i64 0}
!15 = !{!16, !16, i64 0}
!16 = !{!"p1 _ZTSN8facebook4yoga6ConfigE", !6, i64 0}
