; ModuleID = 'bench/yoga/original/AssertFatal.ll'
source_filename = "bench/yoga/original/AssertFatal.ll"
target datalayout = "e-m:e-p270:32:32-p271:32:32-p272:64:64-i64:64-i128:128-f80:128-n8:16:32:64-S128"
target triple = "x86_64-pc-linux-gnu"

$_ZTISt11logic_error = comdat any

$_ZTSSt11logic_error = comdat any

$_ZTISt9exception = comdat any

$_ZTSSt9exception = comdat any

@_ZTISt11logic_error = linkonce_odr constant { ptr, ptr, ptr } { ptr getelementptr inbounds (ptr, ptr @_ZTVN10__cxxabiv120__si_class_type_infoE, i64 2), ptr @_ZTSSt11logic_error, ptr @_ZTISt9exception }, comdat, align 8
@_ZTVN10__cxxabiv120__si_class_type_infoE = external global [0 x ptr]
@_ZTSSt11logic_error = linkonce_odr constant [16 x i8] c"St11logic_error\00", comdat, align 1
@_ZTISt9exception = linkonce_odr constant { ptr, ptr } { ptr getelementptr inbounds (ptr, ptr @_ZTVN10__cxxabiv117__class_type_infoE, i64 2), ptr @_ZTSSt9exception }, comdat, align 8
@_ZTVN10__cxxabiv117__class_type_infoE = external global [0 x ptr]
@_ZTSSt9exception = linkonce_odr constant [13 x i8] c"St9exception\00", comdat, align 1
@.str = private unnamed_addr constant [4 x i8] c"%s\0A\00", align 1

; Function Attrs: mustprogress noreturn uwtable
define hidden void @_ZN8facebook4yoga16fatalWithMessageEPKc(ptr noundef %0) local_unnamed_addr #0 personality ptr @__gxx_personality_v0 {
  %2 = tail call ptr @__cxa_allocate_exception(i64 16) #5
  invoke void @_ZNSt11logic_errorC1EPKc(ptr noundef nonnull align 8 dereferenceable(16) %2, ptr noundef %0)
          to label %3 unwind label %4

3:                                                ; preds = %1
  tail call void @__cxa_throw(ptr nonnull %2, ptr nonnull @_ZTISt11logic_error, ptr nonnull @_ZNSt11logic_errorD1Ev) #6
  unreachable

4:                                                ; preds = %1
  %5 = landingpad { ptr, i32 }
          cleanup
  tail call void @__cxa_free_exception(ptr nonnull %2) #5
  resume { ptr, i32 } %5
}

declare ptr @__cxa_allocate_exception(i64) local_unnamed_addr

declare void @_ZNSt11logic_errorC1EPKc(ptr noundef nonnull align 8 dereferenceable(16), ptr noundef) unnamed_addr #1

declare i32 @__gxx_personality_v0(...)

declare void @__cxa_free_exception(ptr) local_unnamed_addr

; Function Attrs: nounwind
declare void @_ZNSt11logic_errorD1Ev(ptr noundef nonnull align 8 dereferenceable(16)) unnamed_addr #2

; Function Attrs: cold noreturn
declare void @__cxa_throw(ptr, ptr, ptr) local_unnamed_addr #3

; Function Attrs: mustprogress uwtable
define hidden void @_ZN8facebook4yoga11assertFatalEbPKc(i1 noundef zeroext %0, ptr noundef %1) local_unnamed_addr #4 {
  br i1 %0, label %4, label %3

3:                                                ; preds = %2
  tail call void (i8, ptr, ...) @_ZN8facebook4yoga3logENS0_8LogLevelEPKcz(i8 noundef zeroext 5, ptr noundef nonnull @.str, ptr noundef %1) #5
  tail call void @_ZN8facebook4yoga16fatalWithMessageEPKc(ptr noundef %1) #6
  unreachable

4:                                                ; preds = %2
  ret void
}

; Function Attrs: nounwind
declare void @_ZN8facebook4yoga3logENS0_8LogLevelEPKcz(i8 noundef zeroext, ptr noundef, ...) local_unnamed_addr #2

; Function Attrs: mustprogress uwtable
define hidden void @_ZN8facebook4yoga19assertFatalWithNodeEPKNS0_4NodeEbPKc(ptr noundef %0, i1 noundef zeroext %1, ptr noundef %2) local_unnamed_addr #4 {
  br i1 %1, label %5, label %4

4:                                                ; preds = %3
  tail call void (ptr, i8, ptr, ...) @_ZN8facebook4yoga3logEPKNS0_4NodeENS0_8LogLevelEPKcz(ptr noundef %0, i8 noundef zeroext 5, ptr noundef nonnull @.str, ptr noundef %2) #5
  tail call void @_ZN8facebook4yoga16fatalWithMessageEPKc(ptr noundef %2) #6
  unreachable

5:                                                ; preds = %3
  ret void
}

; Function Attrs: nounwind
declare void @_ZN8facebook4yoga3logEPKNS0_4NodeENS0_8LogLevelEPKcz(ptr noundef, i8 noundef zeroext, ptr noundef, ...) local_unnamed_addr #2

; Function Attrs: mustprogress uwtable
define hidden void @_ZN8facebook4yoga21assertFatalWithConfigEPKNS0_6ConfigEbPKc(ptr noundef %0, i1 noundef zeroext %1, ptr noundef %2) local_unnamed_addr #4 {
  br i1 %1, label %5, label %4

4:                                                ; preds = %3
  tail call void (ptr, i8, ptr, ...) @_ZN8facebook4yoga3logEPKNS0_6ConfigENS0_8LogLevelEPKcz(ptr noundef %0, i8 noundef zeroext 5, ptr noundef nonnull @.str, ptr noundef %2) #5
  tail call void @_ZN8facebook4yoga16fatalWithMessageEPKc(ptr noundef %2) #6
  unreachable

5:                                                ; preds = %3
  ret void
}

; Function Attrs: nounwind
declare void @_ZN8facebook4yoga3logEPKNS0_6ConfigENS0_8LogLevelEPKcz(ptr noundef, i8 noundef zeroext, ptr noundef, ...) local_unnamed_addr #2


!llvm.linker.options = !{}
!llvm.module.flags = !{!0, !1, !2, !3}

!0 = !{i32 1, !"wchar_size", i32 4}
!1 = !{i32 8, !"PIC Level", i32 2}
!2 = !{i32 7, !"uwtable", i32 2}
!3 = !{i32 7, !"frame-pointer", i32 2}
